; ModuleID = '43/1081.c'
source_filename = "43/1081.c"
target datalayout = "e-m:e-p270:32:32-p271:32:32-p272:64:64-i64:64-f80:128-n8:16:32:64-S128"
target triple = "x86_64-pc-linux-gnu"

@.str = private unnamed_addr constant [3 x i8] c"%d\00", align 1
@.str.1 = private unnamed_addr constant [7 x i8] c"%d %d\0A\00", align 1

; Function Attrs: noinline nounwind uwtable
define dso_local i32 @main() #0 {
  %1 = alloca i32, align 4
  %2 = alloca i32, align 4
  %3 = alloca i32, align 4
  %4 = alloca i32, align 4
  %5 = alloca i32, align 4
  %6 = alloca i32, align 4
  %7 = alloca [5000 x i32], align 16
  store i32 0, i32* %1, align 4
  %8 = call i32 (i8*, ...) @__isoc99_scanf(i8* getelementptr inbounds ([3 x i8], [3 x i8]* @.str, i64 0, i64 0), i32* %2)
  store i32 0, i32* %6, align 4
  store i32 0, i32* %3, align 4
  store i32 3, i32* %5, align 4
  br label %9

9:                                                ; preds = %41, %0
  %10 = load i32, i32* %5, align 4
  %11 = load i32, i32* %2, align 4
  %12 = icmp slt i32 %10, %11
  br i1 %12, label %13, label %44

13:                                               ; preds = %9
  store i32 2, i32* %4, align 4
  br label %14

14:                                               ; preds = %26, %13
  %15 = load i32, i32* %4, align 4
  %16 = load i32, i32* %5, align 4
  %17 = sdiv i32 %16, 2
  %18 = icmp sle i32 %15, %17
  br i1 %18, label %19, label %29

19:                                               ; preds = %14
  %20 = load i32, i32* %5, align 4
  %21 = load i32, i32* %4, align 4
  %22 = srem i32 %20, %21
  %23 = icmp eq i32 %22, 0
  br i1 %23, label %24, label %25

24:                                               ; preds = %19
  store i32 1, i32* %3, align 4
  br label %29

25:                                               ; preds = %19
  br label %26

26:                                               ; preds = %25
  %27 = load i32, i32* %4, align 4
  %28 = add nsw i32 %27, 1
  store i32 %28, i32* %4, align 4
  br label %14

29:                                               ; preds = %24, %14
  %30 = load i32, i32* %3, align 4
  %31 = icmp eq i32 %30, 0
  br i1 %31, label %32, label %39

32:                                               ; preds = %29
  %33 = load i32, i32* %5, align 4
  %34 = load i32, i32* %6, align 4
  %35 = sext i32 %34 to i64
  %36 = getelementptr inbounds [5000 x i32], [5000 x i32]* %7, i64 0, i64 %35
  store i32 %33, i32* %36, align 4
  %37 = load i32, i32* %6, align 4
  %38 = add nsw i32 %37, 1
  store i32 %38, i32* %6, align 4
  br label %40

39:                                               ; preds = %29
  store i32 0, i32* %3, align 4
  br label %40

40:                                               ; preds = %39, %32
  br label %41

41:                                               ; preds = %40
  %42 = load i32, i32* %5, align 4
  %43 = add nsw i32 %42, 1
  store i32 %43, i32* %5, align 4
  br label %9

44:                                               ; preds = %9
  store i32 0, i32* %4, align 4
  br label %45

45:                                               ; preds = %82, %44
  %46 = load i32, i32* %4, align 4
  %47 = load i32, i32* %6, align 4
  %48 = icmp sle i32 %46, %47
  br i1 %48, label %49, label %85

49:                                               ; preds = %45
  %50 = load i32, i32* %4, align 4
  store i32 %50, i32* %5, align 4
  br label %51

51:                                               ; preds = %78, %49
  %52 = load i32, i32* %5, align 4
  %53 = load i32, i32* %6, align 4
  %54 = icmp sle i32 %52, %53
  br i1 %54, label %55, label %81

55:                                               ; preds = %51
  %56 = load i32, i32* %2, align 4
  %57 = load i32, i32* %4, align 4
  %58 = sext i32 %57 to i64
  %59 = getelementptr inbounds [5000 x i32], [5000 x i32]* %7, i64 0, i64 %58
  %60 = load i32, i32* %59, align 4
  %61 = load i32, i32* %5, align 4
  %62 = sext i32 %61 to i64
  %63 = getelementptr inbounds [5000 x i32], [5000 x i32]* %7, i64 0, i64 %62
  %64 = load i32, i32* %63, align 4
  %65 = add nsw i32 %60, %64
  %66 = icmp eq i32 %56, %65
  br i1 %66, label %67, label %77

67:                                               ; preds = %55
  %68 = load i32, i32* %4, align 4
  %69 = sext i32 %68 to i64
  %70 = getelementptr inbounds [5000 x i32], [5000 x i32]* %7, i64 0, i64 %69
  %71 = load i32, i32* %70, align 4
  %72 = load i32, i32* %5, align 4
  %73 = sext i32 %72 to i64
  %74 = getelementptr inbounds [5000 x i32], [5000 x i32]* %7, i64 0, i64 %73
  %75 = load i32, i32* %74, align 4
  %76 = call i32 (i8*, ...) @printf(i8* getelementptr inbounds ([7 x i8], [7 x i8]* @.str.1, i64 0, i64 0), i32 %71, i32 %75)
  br label %77

77:                                               ; preds = %67, %55
  br label %78

78:                                               ; preds = %77
  %79 = load i32, i32* %5, align 4
  %80 = add nsw i32 %79, 1
  store i32 %80, i32* %5, align 4
  br label %51

81:                                               ; preds = %51
  br label %82

82:                                               ; preds = %81
  %83 = load i32, i32* %4, align 4
  %84 = add nsw i32 %83, 1
  store i32 %84, i32* %4, align 4
  br label %45

85:                                               ; preds = %45
  ret i32 0
}

declare dso_local i32 @__isoc99_scanf(i8*, ...) #1

declare dso_local i32 @printf(i8*, ...) #1


!llvm.module.flags = !{!0}
!llvm.ident = !{!1}

!0 = !{i32 1, !"wchar_size", i32 4}
!1 = !{!"clang version 10.0.0-4ubuntu1 "}
